; ModuleID = 'source-C-CXX/61/1589.c'
source_filename = "source-C-CXX/61/1589.c"
target datalayout = "e-m:e-p270:32:32-p271:32:32-p272:64:64-i64:64-f80:128-n8:16:32:64-S128"
target triple = "x86_64-pc-linux-gnu"

; Function Attrs: nounwind sspstrong uwtable
define dso_local i32 @main() local_unnamed_addr #0 {
  %1 = alloca [201 x i8], align 16
  %2 = getelementptr inbounds [201 x i8], [201 x i8]* %1, i64 0, i64 0
  call void @llvm.lifetime.start.p0i8(i64 201, i8* nonnull %2) #6
  call void @llvm.memset.p0i8.i64(i8* noundef nonnull align 16 dereferenceable(201) %2, i8 0, i64 201, i1 false)
  %3 = call i32 (i8*, ...) bitcast (i32 (...)* @gets to i32 (i8*, ...)*)(i8* nonnull %2) #6
  %4 = load i8, i8* %2, align 16
  %5 = icmp eq i8 %4, 0
  br i1 %5, label %25, label %6

6:                                                ; preds = %0, %21
  %7 = phi i64 [ %22, %21 ], [ 0, %0 ]
  %8 = add nsw i64 %7, -1
  %9 = getelementptr inbounds [201 x i8], [201 x i8]* %1, i64 0, i64 %8
  %10 = load i8, i8* %9, align 1, !tbaa !5
  %11 = icmp eq i8 %10, 32
  %12 = icmp ugt i64 %7, 1
  %13 = select i1 %11, i1 %12, i1 false
  %14 = getelementptr inbounds [201 x i8], [201 x i8]* %1, i64 0, i64 %7
  %15 = load i8, i8* %14, align 1, !tbaa !5
  %16 = icmp eq i8 %15, 32
  %17 = select i1 %13, i1 %16, i1 false
  br i1 %17, label %21, label %18

18:                                               ; preds = %6
  %19 = sext i8 %15 to i32
  %20 = call i32 @putchar(i32 %19)
  br label %21

21:                                               ; preds = %6, %18
  %22 = add nuw i64 %7, 1
  %23 = call i64 @strlen(i8* noundef nonnull %2) #7
  %24 = icmp ugt i64 %23, %22
  br i1 %24, label %6, label %25, !llvm.loop !8

25:                                               ; preds = %21, %0
  call void @llvm.lifetime.end.p0i8(i64 201, i8* nonnull %2) #6
  ret i32 0
}

; Function Attrs: argmemonly mustprogress nofree nosync nounwind willreturn
declare void @llvm.lifetime.start.p0i8(i64 immarg, i8* nocapture) #1

; Function Attrs: argmemonly mustprogress nofree nounwind willreturn writeonly
declare void @llvm.memset.p0i8.i64(i8* nocapture writeonly, i8, i64, i1 immarg) #2

declare i32 @gets(...) local_unnamed_addr #3

; Function Attrs: argmemonly mustprogress nofree nounwind readonly willreturn
declare i64 @strlen(i8* nocapture) local_unnamed_addr #4

; Function Attrs: argmemonly mustprogress nofree nosync nounwind willreturn
declare void @llvm.lifetime.end.p0i8(i64 immarg, i8* nocapture) #1

; Function Attrs: nofree nounwind
declare noundef i32 @putchar(i32 noundef) local_unnamed_addr #5


!llvm.module.flags = !{!0, !1, !2, !3}
!llvm.ident = !{!4}

!0 = !{i32 1, !"wchar_size", i32 4}
!1 = !{i32 7, !"PIC Level", i32 2}
!2 = !{i32 7, !"PIE Level", i32 2}
!3 = !{i32 7, !"uwtable", i32 1}
!4 = !{!"clang version 13.0.0"}
!5 = !{!6, !6, i64 0}
!6 = !{!"omnipotent char", !7, i64 0}
!7 = !{!"Simple C/C++ TBAA"}
!8 = distinct !{!8, !9}
!9 = !{!"llvm.loop.mustprogress"}
